target datalayout = "e-m:e-p270:32:32-p271:32:32-p272:64:64-i64:64-i128:128-f80:128-n8:16:32:64-S128"
target triple = "x86_64-pc-linux-gnu"

%"class.std::__cxx11::basic_string" = type { %"struct.std::__cxx11::basic_string<char>::_Alloc_hider", i64, %union.anon }
%"struct.std::__cxx11::basic_string<char>::_Alloc_hider" = type { ptr }
%union.anon = type { i64, [8 x i8] }
%"class.gmx::(anonymous namespace)::DensityFitting" = type { %"class.gmx::IMDModule", %"class.gmx::DensityFittingOutputProvider", %"class.gmx::DensityFittingOptions", %"class.std::unique_ptr.13", %"class.gmx::(anonymous namespace)::DensityFittingSimulationParameterSetup", %"struct.gmx::DensityFittingForceProviderState" }
%"class.gmx::IMDModule" = type { ptr }
%"class.gmx::DensityFittingOutputProvider" = type { %"class.gmx::IMDOutputProvider" }
%"class.gmx::IMDOutputProvider" = type { ptr }
%"class.gmx::DensityFittingOptions" = type { %"class.gmx::IMdpOptionProvider", %"class.std::__cxx11::basic_string", %"class.std::__cxx11::basic_string", %"class.std::__cxx11::basic_string", %"class.std::__cxx11::basic_string", %"class.std::__cxx11::basic_string", %"class.std::__cxx11::basic_string", %"class.std::__cxx11::basic_string", %"class.std::__cxx11::basic_string", %"class.std::__cxx11::basic_string", %"class.std::__cxx11::basic_string", %"class.std::__cxx11::basic_string", %"class.std::__cxx11::basic_string", %"class.std::__cxx11::basic_string", %"class.std::__cxx11::basic_string", %"class.std::__cxx11::basic_string", %"class.std::__cxx11::basic_string", %"struct.gmx::DensityFittingParameters" }
%"class.gmx::IMdpOptionProvider" = type { ptr }
%"struct.gmx::DensityFittingParameters" = type { i8, %"class.std::vector", i32, i32, float, float, float, i64, i8, i8, float, %"class.std::__cxx11::basic_string", %"class.std::__cxx11::basic_string" }
%"class.std::vector" = type { %"struct.std::_Vector_base" }
%"struct.std::_Vector_base" = type { %"struct.std::_Vector_base<long, std::allocator<long>>::_Vector_impl" }
%"struct.std::_Vector_base<long, std::allocator<long>>::_Vector_impl" = type { %"struct.std::_Vector_base<long, std::allocator<long>>::_Vector_impl_data" }
%"struct.std::_Vector_base<long, std::allocator<long>>::_Vector_impl_data" = type { ptr, ptr, ptr }
%"class.std::unique_ptr.13" = type { %"struct.std::__uniq_ptr_data.14" }
%"struct.std::__uniq_ptr_data.14" = type { %"class.std::__uniq_ptr_impl.15" }
%"class.std::__uniq_ptr_impl.15" = type { %"class.std::tuple.16" }
%"class.std::tuple.16" = type { %"struct.std::_Tuple_impl.17" }
%"struct.std::_Tuple_impl.17" = type { %"struct.std::_Head_base.20" }
%"struct.std::_Head_base.20" = type { ptr }
%"class.gmx::(anonymous namespace)::DensityFittingSimulationParameterSetup" = type { %"class.std::unique_ptr.21", %"class.std::unique_ptr.29", %"class.std::unique_ptr.37", %"class.std::unique_ptr.45", double }
%"class.std::unique_ptr.21" = type { %"struct.std::__uniq_ptr_data.22" }
%"struct.std::__uniq_ptr_data.22" = type { %"class.std::__uniq_ptr_impl.23" }
%"class.std::__uniq_ptr_impl.23" = type { %"class.std::tuple.24" }
%"class.std::tuple.24" = type { %"struct.std::_Tuple_impl.25" }
%"struct.std::_Tuple_impl.25" = type { %"struct.std::_Head_base.28" }
%"struct.std::_Head_base.28" = type { ptr }
%"class.std::unique_ptr.29" = type { %"struct.std::__uniq_ptr_data.30" }
%"struct.std::__uniq_ptr_data.30" = type { %"class.std::__uniq_ptr_impl.31" }
%"class.std::__uniq_ptr_impl.31" = type { %"class.std::tuple.32" }
%"class.std::tuple.32" = type { %"struct.std::_Tuple_impl.33" }
%"struct.std::_Tuple_impl.33" = type { %"struct.std::_Head_base.36" }
%"struct.std::_Head_base.36" = type { ptr }
%"class.std::unique_ptr.37" = type { %"struct.std::__uniq_ptr_data.38" }
%"struct.std::__uniq_ptr_data.38" = type { %"class.std::__uniq_ptr_impl.39" }
%"class.std::__uniq_ptr_impl.39" = type { %"class.std::tuple.40" }
%"class.std::tuple.40" = type { %"struct.std::_Tuple_impl.41" }
%"struct.std::_Tuple_impl.41" = type { %"struct.std::_Head_base.44" }
%"struct.std::_Head_base.44" = type { ptr }
%"class.std::unique_ptr.45" = type { %"struct.std::__uniq_ptr_data.46" }
%"struct.std::__uniq_ptr_data.46" = type { %"class.std::__uniq_ptr_impl.47" }
%"class.std::__uniq_ptr_impl.47" = type { %"class.std::tuple.48" }
%"class.std::tuple.48" = type { %"struct.std::_Tuple_impl.49" }
%"struct.std::_Tuple_impl.49" = type { %"struct.std::_Head_base.52" }
%"struct.std::_Head_base.52" = type { ptr }
%"struct.gmx::DensityFittingForceProviderState" = type { i64, %"struct.gmx::ExponentialMovingAverageState", float }
%"struct.gmx::ExponentialMovingAverageState" = type <{ float, float, i8, [3 x i8] }>
%class.anon.306 = type { ptr }
%"struct.gmx::MDModulesEnergyOutputToDensityFittingRequestChecker" = type { i8 }

; Function Attrs: mustprogress uwtable
define internal void @_ZN3gmx12_GLOBAL__N_114DensityFitting22setEnergyOutputRequestEPNS_51MDModulesEnergyOutputToDensityFittingRequestCheckerE(ptr noundef nonnull align 8 dereferenceable(744) %0, ptr noundef %1) #0 align 2 {
  %3 = alloca ptr, align 8
  %4 = alloca ptr, align 8
  store ptr %0, ptr %3, align 8, !tbaa !14
  store ptr %1, ptr %4, align 8, !tbaa !630
  %5 = load ptr, ptr %3, align 8
  %6 = getelementptr inbounds nuw %"class.gmx::(anonymous namespace)::DensityFitting", ptr %5, i32 0, i32 2
  %7 = call noundef zeroext i1 @_ZNK3gmx21DensityFittingOptions6activeEv(ptr noundef nonnull align 8 dereferenceable(656) %6)
  %8 = load ptr, ptr %4, align 8, !tbaa !630
  %9 = getelementptr inbounds nuw %"struct.gmx::MDModulesEnergyOutputToDensityFittingRequestChecker", ptr %8, i32 0, i32 0
  %10 = zext i1 %7 to i8
  store i8 %10, ptr %9, align 1, !tbaa !632
  ret void
}

; Function Attrs: inlinehint mustprogress uwtable
define internal void @_ZZN3gmx12_GLOBAL__N_114DensityFitting39subscribeToSimulationSetupNotificationsEPNS_18MDModulesNotifiersEENKUlPNS_51MDModulesEnergyOutputToDensityFittingRequestCheckerEE_clES5_(ptr noundef nonnull align 8 dereferenceable(8) %0, ptr noundef %1) #2 align 2 {
  %3 = alloca ptr, align 8
  %4 = alloca ptr, align 8
  store ptr %0, ptr %3, align 8, !tbaa !254
  store ptr %1, ptr %4, align 8, !tbaa !630
  %5 = load ptr, ptr %3, align 8
  %6 = getelementptr inbounds nuw %class.anon.306, ptr %5, i32 0, i32 0
  %7 = load ptr, ptr %6, align 8, !tbaa !107
  %8 = load ptr, ptr %4, align 8, !tbaa !630
  call void @_ZN3gmx12_GLOBAL__N_114DensityFitting22setEnergyOutputRequestEPNS_51MDModulesEnergyOutputToDensityFittingRequestCheckerE(ptr noundef nonnull align 8 dereferenceable(744) %7, ptr noundef %8)
  ret void
}

; Function Attrs: mustprogress nounwind uwtable
define linkonce_odr noundef ptr @_ZNKSt9_Any_data9_M_accessEv(ptr noundef nonnull align 8 dereferenceable(16) %0) #3 comdat align 2 {
  %2 = alloca ptr, align 8
  store ptr %0, ptr %2, align 8, !tbaa !524
  %3 = load ptr, ptr %2, align 8
  %4 = getelementptr inbounds [16 x i8], ptr %3, i64 0, i64 0
  ret ptr %4
}

; Function Attrs: mustprogress uwtable
define internal void @_ZSt13__invoke_implIvRZN3gmx12_GLOBAL__N_114DensityFitting39subscribeToSimulationSetupNotificationsEPNS0_18MDModulesNotifiersEEUlPNS0_51MDModulesEnergyOutputToDensityFittingRequestCheckerEE_JS6_EET_St14__invoke_otherOT0_DpOT1_(ptr noundef nonnull align 8 dereferenceable(8) %0, ptr noundef nonnull align 8 dereferenceable(8) %1) #0 {
  %3 = alloca ptr, align 8
  %4 = alloca ptr, align 8
  store ptr %0, ptr %3, align 8, !tbaa !254
  store ptr %1, ptr %4, align 8, !tbaa !628
  %5 = load ptr, ptr %3, align 8, !tbaa !254
  %6 = load ptr, ptr %4, align 8, !tbaa !628
  %7 = load ptr, ptr %6, align 8, !tbaa !630
  call void @_ZZN3gmx12_GLOBAL__N_114DensityFitting39subscribeToSimulationSetupNotificationsEPNS_18MDModulesNotifiersEENKUlPNS_51MDModulesEnergyOutputToDensityFittingRequestCheckerEE_clES5_(ptr noundef nonnull align 8 dereferenceable(8) %5, ptr noundef %7)
  ret void
}

; Function Attrs: mustprogress nounwind uwtable
define internal noundef nonnull align 8 dereferenceable(8) ptr @_ZNKSt9_Any_data9_M_accessIZN3gmx12_GLOBAL__N_114DensityFitting39subscribeToSimulationSetupNotificationsEPNS1_18MDModulesNotifiersEEUlPNS1_51MDModulesEnergyOutputToDensityFittingRequestCheckerEE_EERKT_v(ptr noundef nonnull align 8 dereferenceable(16) %0) #3 align 2 {
  %2 = alloca ptr, align 8
  store ptr %0, ptr %2, align 8, !tbaa !524
  %3 = load ptr, ptr %2, align 8
  %4 = call noundef ptr @_ZNKSt9_Any_data9_M_accessEv(ptr noundef nonnull align 8 dereferenceable(16) %3) #19
  ret ptr %4
}

; Function Attrs: mustprogress uwtable
define internal void @_ZSt10__invoke_rIvRZN3gmx12_GLOBAL__N_114DensityFitting39subscribeToSimulationSetupNotificationsEPNS0_18MDModulesNotifiersEEUlPNS0_51MDModulesEnergyOutputToDensityFittingRequestCheckerEE_JS6_EENSt9enable_ifIX16is_invocable_r_vIT_T0_DpT1_EESA_E4typeEOSB_DpOSC_(ptr noundef nonnull align 8 dereferenceable(8) %0, ptr noundef nonnull align 8 dereferenceable(8) %1) #0 {
  %3 = alloca ptr, align 8
  %4 = alloca ptr, align 8
  store ptr %0, ptr %3, align 8, !tbaa !254
  store ptr %1, ptr %4, align 8, !tbaa !628
  %5 = load ptr, ptr %3, align 8, !tbaa !254
  %6 = load ptr, ptr %4, align 8, !tbaa !628
  call void @_ZSt13__invoke_implIvRZN3gmx12_GLOBAL__N_114DensityFitting39subscribeToSimulationSetupNotificationsEPNS0_18MDModulesNotifiersEEUlPNS0_51MDModulesEnergyOutputToDensityFittingRequestCheckerEE_JS6_EET_St14__invoke_otherOT0_DpOT1_(ptr noundef nonnull align 8 dereferenceable(8) %5, ptr noundef nonnull align 8 dereferenceable(8) %6)
  ret void
}

; Function Attrs: mustprogress nounwind uwtable
define internal noundef ptr @_ZNSt14_Function_base13_Base_managerIZN3gmx12_GLOBAL__N_114DensityFitting39subscribeToSimulationSetupNotificationsEPNS1_18MDModulesNotifiersEEUlPNS1_51MDModulesEnergyOutputToDensityFittingRequestCheckerEE_E14_M_get_pointerERKSt9_Any_data(ptr noundef nonnull align 8 dereferenceable(16) %0) #3 align 2 {
  %2 = alloca ptr, align 8
  %3 = alloca ptr, align 8
  store ptr %0, ptr %2, align 8, !tbaa !524
  call void @llvm.lifetime.start.p0(i64 8, ptr %3) #19
  %4 = load ptr, ptr %2, align 8, !tbaa !524
  %5 = call noundef nonnull align 8 dereferenceable(8) ptr @_ZNKSt9_Any_data9_M_accessIZN3gmx12_GLOBAL__N_114DensityFitting39subscribeToSimulationSetupNotificationsEPNS1_18MDModulesNotifiersEEUlPNS1_51MDModulesEnergyOutputToDensityFittingRequestCheckerEE_EERKT_v(ptr noundef nonnull align 8 dereferenceable(16) %4) #19
  store ptr %5, ptr %3, align 8, !tbaa !254
  %6 = load ptr, ptr %3, align 8, !tbaa !254
  call void @llvm.lifetime.end.p0(i64 8, ptr %3) #19
  ret ptr %6
}

; Function Attrs: mustprogress uwtable
define internal void @_ZNSt17_Function_handlerIFvPN3gmx51MDModulesEnergyOutputToDensityFittingRequestCheckerEEZNS0_12_GLOBAL__N_114DensityFitting39subscribeToSimulationSetupNotificationsEPNS0_18MDModulesNotifiersEEUlS2_E_E9_M_invokeERKSt9_Any_dataOS2_(ptr noundef nonnull align 8 dereferenceable(16) %0, ptr noundef nonnull align 8 dereferenceable(8) %1) #0 align 2 {
  %3 = alloca ptr, align 8
  %4 = alloca ptr, align 8
  store ptr %0, ptr %3, align 8, !tbaa !524
  store ptr %1, ptr %4, align 8, !tbaa !628
  %5 = load ptr, ptr %3, align 8, !tbaa !524
  %6 = call noundef ptr @_ZNSt14_Function_base13_Base_managerIZN3gmx12_GLOBAL__N_114DensityFitting39subscribeToSimulationSetupNotificationsEPNS1_18MDModulesNotifiersEEUlPNS1_51MDModulesEnergyOutputToDensityFittingRequestCheckerEE_E14_M_get_pointerERKSt9_Any_data(ptr noundef nonnull align 8 dereferenceable(16) %5) #19
  %7 = load ptr, ptr %4, align 8, !tbaa !628
  call void @_ZSt10__invoke_rIvRZN3gmx12_GLOBAL__N_114DensityFitting39subscribeToSimulationSetupNotificationsEPNS0_18MDModulesNotifiersEEUlPNS0_51MDModulesEnergyOutputToDensityFittingRequestCheckerEE_JS6_EENSt9enable_ifIX16is_invocable_r_vIT_T0_DpT1_EESA_E4typeEOSB_DpOSC_(ptr noundef nonnull align 8 dereferenceable(8) %6, ptr noundef nonnull align 8 dereferenceable(8) %7)
  ret void
}