; Function Attrs: mustprogress uwtable
define internal void @_ZNSt17_Function_handlerIFvPN3gmx51MDModulesEnergyOutputToDensityFittingRequestCheckerEEZNS0_12_GLOBAL__N_114DensityFitting39subscribeToSimulationSetupNotificationsEPNS0_18MDModulesNotifiersEEUlS2_E_E9_M_invokeERKSt9_Any_dataOS2_(ptr noundef nonnull readonly align 8 captures(none) dereferenceable(16) %0, ptr noundef nonnull readonly align 8 captures(none) dereferenceable(8) %1) #0 align 2 {
  %.val = load ptr, ptr %0, align 8, !tbaa !313
  %.val2 = load ptr, ptr %1, align 8, !tbaa !315
  %3 = getelementptr inbounds nuw i8, ptr %.val, i64 16
  %4 = tail call noundef zeroext i1 @_ZNK3gmx21DensityFittingOptions6activeEv(ptr noundef nonnull align 8 dereferenceable(656) %3)
  %5 = zext i1 %4 to i8
  store i8 %5, ptr %.val2, align 1, !tbaa !317
  ret void
}